; ModuleID = 'source-C-CXX/30/377.c'
source_filename = "source-C-CXX/30/377.c"
target datalayout = "e-m:e-p270:32:32-p271:32:32-p272:64:64-i64:64-f80:128-n8:16:32:64-S128"
target triple = "x86_64-pc-linux-gnu"

%struct.Student = type { [100 x i8], [100 x i8], i8, i32, [20 x i8], [100 x i8], %struct.Student*, %struct.Student* }

@n = dso_local local_unnamed_addr global i32 0, align 4
@.str = private unnamed_addr constant [15 x i8] c"%s %s %c%d%s%s\00", align 1
@.str.1 = private unnamed_addr constant [19 x i8] c"%s %s %c %d %s %s\0A\00", align 1

; Function Attrs: nofree nounwind sspstrong uwtable
define dso_local void @main() local_unnamed_addr #0 {
  store i32 0, i32* @n, align 4, !tbaa !5
  %1 = tail call noalias align 16 dereferenceable_or_null(100) i8* @malloc(i64 100) #3
  %2 = bitcast i8* %1 to %struct.Student*
  br label %3

3:                                                ; preds = %26, %0
  %4 = phi %struct.Student* [ %30, %26 ], [ %2, %0 ]
  %5 = phi %struct.Student* [ %4, %26 ], [ null, %0 ]
  %6 = phi %struct.Student* [ %4, %26 ], [ %2, %0 ]
  %7 = getelementptr inbounds %struct.Student, %struct.Student* %4, i64 0, i32 0
  %8 = getelementptr inbounds %struct.Student, %struct.Student* %4, i64 0, i32 1
  %9 = getelementptr inbounds %struct.Student, %struct.Student* %4, i64 0, i32 2
  %10 = getelementptr inbounds %struct.Student, %struct.Student* %4, i64 0, i32 3
  %11 = getelementptr inbounds %struct.Student, %struct.Student* %4, i64 0, i32 4
  %12 = getelementptr inbounds %struct.Student, %struct.Student* %4, i64 0, i32 5
  %13 = tail call i32 (i8*, ...) @__isoc99_scanf(i8* getelementptr inbounds ([15 x i8], [15 x i8]* @.str, i64 0, i64 0), [100 x i8]* %7, [100 x i8]* nonnull %8, i8* nonnull %9, i32* nonnull %10, [20 x i8]* nonnull %11, [100 x i8]* nonnull %12)
  %14 = getelementptr inbounds %struct.Student, %struct.Student* %4, i64 0, i32 7
  store %struct.Student* %5, %struct.Student** %14, align 16, !tbaa !9
  %15 = getelementptr inbounds %struct.Student, %struct.Student* %4, i64 0, i32 0, i64 0
  %16 = load i8, i8* %15, align 8, !tbaa !12
  %17 = icmp eq i8 %16, 101
  br i1 %17, label %18, label %26

18:                                               ; preds = %3
  %19 = getelementptr inbounds %struct.Student, %struct.Student* %4, i64 0, i32 0, i64 1
  %20 = load i8, i8* %19, align 1, !tbaa !12
  %21 = icmp eq i8 %20, 110
  br i1 %21, label %22, label %26

22:                                               ; preds = %18
  %23 = getelementptr inbounds %struct.Student, %struct.Student* %4, i64 0, i32 0, i64 2
  %24 = load i8, i8* %23, align 2, !tbaa !12
  %25 = icmp eq i8 %24, 100
  br i1 %25, label %31, label %26

26:                                               ; preds = %3, %18, %22
  %27 = load i32, i32* @n, align 4, !tbaa !5
  %28 = add nsw i32 %27, 1
  store i32 %28, i32* @n, align 4, !tbaa !5
  %29 = tail call noalias align 16 dereferenceable_or_null(100) i8* @malloc(i64 100) #3
  %30 = bitcast i8* %29 to %struct.Student*
  br label %3, !llvm.loop !13

31:                                               ; preds = %22, %31
  %32 = phi %struct.Student* [ %44, %31 ], [ %6, %22 ]
  %33 = getelementptr inbounds %struct.Student, %struct.Student* %32, i64 0, i32 0, i64 0
  %34 = getelementptr inbounds %struct.Student, %struct.Student* %32, i64 0, i32 1, i64 0
  %35 = getelementptr inbounds %struct.Student, %struct.Student* %32, i64 0, i32 2
  %36 = load i8, i8* %35, align 8, !tbaa !15
  %37 = sext i8 %36 to i32
  %38 = getelementptr inbounds %struct.Student, %struct.Student* %32, i64 0, i32 3
  %39 = load i32, i32* %38, align 4, !tbaa !16
  %40 = getelementptr inbounds %struct.Student, %struct.Student* %32, i64 0, i32 4, i64 0
  %41 = getelementptr inbounds %struct.Student, %struct.Student* %32, i64 0, i32 5, i64 0
  %42 = tail call i32 (i8*, ...) @printf(i8* nonnull dereferenceable(1) getelementptr inbounds ([19 x i8], [19 x i8]* @.str.1, i64 0, i64 0), i8* nonnull %33, i8* nonnull %34, i32 %37, i32 %39, i8* nonnull %40, i8* nonnull %41)
  %43 = getelementptr inbounds %struct.Student, %struct.Student* %32, i64 0, i32 7
  %44 = load %struct.Student*, %struct.Student** %43, align 8, !tbaa !9
  %45 = icmp eq %struct.Student* %44, null
  br i1 %45, label %46, label %31, !llvm.loop !17

46:                                               ; preds = %31
  ret void
}

; Function Attrs: inaccessiblememonly mustprogress nofree nounwind willreturn
declare noalias noundef align 16 i8* @malloc(i64 noundef) local_unnamed_addr #1

; Function Attrs: nofree nounwind
declare noundef i32 @__isoc99_scanf(i8* nocapture noundef readonly, ...) local_unnamed_addr #2

; Function Attrs: nofree nounwind
declare noundef i32 @printf(i8* nocapture noundef readonly, ...) local_unnamed_addr #2


!llvm.module.flags = !{!0, !1, !2, !3}
!llvm.ident = !{!4}

!0 = !{i32 1, !"wchar_size", i32 4}
!1 = !{i32 7, !"PIC Level", i32 2}
!2 = !{i32 7, !"PIE Level", i32 2}
!3 = !{i32 7, !"uwtable", i32 1}
!4 = !{!"clang version 13.0.0"}
!5 = !{!6, !6, i64 0}
!6 = !{!"int", !7, i64 0}
!7 = !{!"omnipotent char", !8, i64 0}
!8 = !{!"Simple C/C++ TBAA"}
!9 = !{!10, !11, i64 336}
!10 = !{!"Student", !7, i64 0, !7, i64 100, !7, i64 200, !6, i64 204, !7, i64 208, !7, i64 228, !11, i64 328, !11, i64 336}
!11 = !{!"any pointer", !7, i64 0}
!12 = !{!7, !7, i64 0}
!13 = distinct !{!13, !14}
!14 = !{!"llvm.loop.mustprogress"}
!15 = !{!10, !7, i64 200}
!16 = !{!10, !6, i64 204}
!17 = distinct !{!17, !14}
